(dp0
S'frame0049.jpg'
p1
(I7
cnumpy.core.multiarray
_reconstruct
p2
(cnumpy
ndarray
p3
(I0
tp4
S'b'
p5
tp6
Rp7
(I1
(I3
tp8
cnumpy
dtype
p9
(S'f4'
p10
I0
I1
tp11
Rp12
(I3
S'<'
p13
NNNI-1
I-1
I0
tp14
bI00
S'\x00\x00\x07C\x00\x00\xe8A(\x97\xbaA'
p15
tp16
btp17
sS'frame0046.jpg'
p18
(I5
g2
(g3
(I0
tp19
g5
tp20
Rp21
(I1
(I3
tp22
g12
I00
S'\x00\x00\xa6B\x00\x00\xb2B\x11\xe2\x99A'
p23
tp24
btp25
sS'frame0045.jpg'
p26
(I1
g2
(g3
(I0
tp27
g5
tp28
Rp29
(I1
(I3
tp30
g12
I00
S'\x00\x00\xb6B\x00\x00\xceB\x11\xe2\x99A'
p31
tp32
btp33
sS'frame0047.jpg'
p34
(I37
g2
(g3
(I0
tp35
g5
tp36
Rp37
(I1
(I3
tp38
g12
I00
S'\x00\x00\xbeB\x00\x00\x96B/<\x88A'
p39
tp40
btp41
sS'frame0041.jpg'
p42
(I1
g2
(g3
(I0
tp43
g5
tp44
Rp45
(I1
(I3
tp46
g12
I00
S'\x00\x00]C\x00\x00\xdeB\xa4\xb4\xa9A'
p47
tp48
btp49
sS'frame0043.jpg'
p50
(I0
Ntp51
sS'frame0040.jpg'
p52
(I218
g2
(g3
(I0
tp53
g5
tp54
Rp55
(I1
(I3
tp56
g12
I00
S'\x00\x00\x0bC\x00\x00\xf6B\xbfJ\x02B'
p57
tp58
btp59
sS'frame0048.jpg'
p60
(I0
Ntp61
sS'frame0044.jpg'
p62
(I1
g2
(g3
(I0
tp63
g5
tp64
Rp65
(I1
(I3
tp66
g12
I00
S'\x00\x00\x11C\x00\x00\x1cB\xdc\xe2\x90A'
p67
tp68
btp69
sS'frame0042.jpg'
p70
(I37
g2
(g3
(I0
tp71
g5
tp72
Rp73
(I1
(I3
tp74
g12
I00
S'\x00\x00\x1dC\x00\x00\x96Bp2\xf1A'
p75
tp76
btp77
sS'frame0050.jpg'
p78
(I0
Ntp79
sS'frame0051.jpg'
p80
(I3
g2
(g3
(I0
tp81
g5
tp82
Rp83
(I1
(I3
tp84
g12
I00
S'\x00\x00\x03C\x00\x00\xa2B}O\xf3A'
p85
tp86
btp87
s.