(dp0
S'frame0028.jpg'
p1
(I2
cnumpy.core.multiarray
_reconstruct
p2
(cnumpy
ndarray
p3
(I0
tp4
S'b'
p5
tp6
Rp7
(I1
(I3
tp8
cnumpy
dtype
p9
(S'f4'
p10
I0
I1
tp11
Rp12
(I3
S'<'
p13
NNNI-1
I-1
I0
tp14
bI00
S'\x00\x00\xfaB\x00\x00\x1fC0FbA'
p15
tp16
btp17
sS'frame0022.jpg'
p18
(I0
Ntp19
sS'frame0020.jpg'
p20
(I300
g2
(g3
(I0
tp21
g5
tp22
Rp23
(I1
(I3
tp24
g12
I00
S'\x00\x00UC\x00\x00\xeeB?\x99\x02B'
p25
tp26
btp27
sS'frame0026.jpg'
p28
(I105
g2
(g3
(I0
tp29
g5
tp30
Rp31
(I1
(I3
tp32
g12
I00
S'\x00\x00\x01C\x00\x00\x03C\r\\\x16B'
p33
tp34
btp35
sS'frame0029.jpg'
p36
(I2
g2
(g3
(I0
tp37
g5
tp38
Rp39
(I1
(I3
tp40
g12
I00
S'\x00\x00\x07C\x00\x00)C\xdc5\x98A'
p41
tp42
btp43
sS'frame0024.jpg'
p44
(I58
g2
(g3
(I0
tp45
g5
tp46
Rp47
(I1
(I3
tp48
g12
I00
S'\x00\x00\x05C\x00\x00\x05C\x06P\x0bB'
p49
tp50
btp51
sS'frame0023.jpg'
p52
(I50
g2
(g3
(I0
tp53
g5
tp54
Rp55
(I1
(I3
tp56
g12
I00
S'\x00\x00\xf6B\x00\x00\xfaB\x9ao\x0eB'
p57
tp58
btp59
sS'frame0021.jpg'
p60
(I74
g2
(g3
(I0
tp61
g5
tp62
Rp63
(I1
(I3
tp64
g12
I00
S'\x00\x00\xaeB\x00\x00\xdaB\x06;\x02B'
p65
tp66
btp67
sS'frame0027.jpg'
p68
(I160
g2
(g3
(I0
tp69
g5
tp70
Rp71
(I1
(I3
tp72
g12
I00
S'\x00\x00\x07C\x00\x00!C\x00\x00`A'
p73
tp74
btp75
sS'frame0025.jpg'
p76
(I80
g2
(g3
(I0
tp77
g5
tp78
Rp79
(I1
(I3
tp80
g12
I00
S'\x00\x00\x01C\x00\x00\x01C\x00\x00\x18B'
p81
tp82
btp83
s.