(dp0
S'frame0005.jpg'
p1
(I258
cnumpy.core.multiarray
_reconstruct
p2
(cnumpy
ndarray
p3
(I0
tp4
S'b'
p5
tp6
Rp7
(I1
(I3
tp8
cnumpy
dtype
p9
(S'f4'
p10
I0
I1
tp11
Rp12
(I3
S'<'
p13
NNNI-1
I-1
I0
tp14
bI00
S'\x00\x00\x01C\x00\x00/C\xbc0(B'
p15
tp16
btp17
sS'frame0007.jpg'
p18
(I292
g2
(g3
(I0
tp19
g5
tp20
Rp21
(I1
(I3
tp22
g12
I00
S'\x00\x00\tC\x00\x00\x0cBaX\x15B'
p23
tp24
btp25
sS'frame0009.jpg'
p26
(I283
g2
(g3
(I0
tp27
g5
tp28
Rp29
(I1
(I3
tp30
g12
I00
S'\x00\x00\xe6B\x00\x004B\xae\x81\x05B'
p31
tp32
btp33
sS'frame0000.jpg'
p34
(I553
g2
(g3
(I0
tp35
g5
tp36
Rp37
(I1
(I3
tp38
g12
I00
S'\x00\x00=C\x00\x00\xd2B=p$B'
p39
tp40
btp41
sS'frame0002.jpg'
p42
(I522
g2
(g3
(I0
tp43
g5
tp44
Rp45
(I1
(I3
tp46
g12
I00
S'\x00\x00\tC\x00\x001CIf4B'
p47
tp48
btp49
sS'frame0004.jpg'
p50
(I206
g2
(g3
(I0
tp51
g5
tp52
Rp53
(I1
(I3
tp54
g12
I00
S'\x00\x00\xf6B\x00\x001CI\xb03B'
p55
tp56
btp57
sS'frame0006.jpg'
p58
(I462
g2
(g3
(I0
tp59
g5
tp60
Rp61
(I1
(I3
tp62
g12
I00
S'\x00\x00\x11C\x00\x00/C\x9b\xc2(B'
p63
tp64
btp65
sS'frame0008.jpg'
p66
(I286
g2
(g3
(I0
tp67
g5
tp68
Rp69
(I1
(I3
tp70
g12
I00
S'\x00\x00\x0fC\x00\x00\x1cB\xdf\xc0\tB'
p71
tp72
btp73
sS'frame0001.jpg'
p74
(I191
g2
(g3
(I0
tp75
g5
tp76
Rp77
(I1
(I3
tp78
g12
I00
S'\x00\x00\x0bC\x00\x00\x96B\xdc\xe2\x90A'
p79
tp80
btp81
sS'frame0003.jpg'
p82
(I273
g2
(g3
(I0
tp83
g5
tp84
Rp85
(I1
(I3
tp86
g12
I00
S'\x00\x00\x13C\x00\x00+C\xea\x891B'
p87
tp88
btp89
s.