(dp0
S'frame0039.jpg'
p1
(I1
cnumpy.core.multiarray
_reconstruct
p2
(cnumpy
ndarray
p3
(I0
tp4
S'b'
p5
tp6
Rp7
(I1
(I3
tp8
cnumpy
dtype
p9
(S'f4'
p10
I0
I1
tp11
Rp12
(I3
S'<'
p13
NNNI-1
I-1
I0
tp14
bI00
S'\x00\x00\xb6B\x00\x00|Bm\xc4\xabA'
p15
tp16
btp17
sS'frame0035.jpg'
p18
(I23
g2
(g3
(I0
tp19
g5
tp20
Rp21
(I1
(I3
tp22
g12
I00
S'\x00\x00\xe6B\x00\x00\x92BJ\xcc\xa0A'
p23
tp24
btp25
sS'frame0037.jpg'
p26
(I68
g2
(g3
(I0
tp27
g5
tp28
Rp29
(I1
(I3
tp30
g12
I00
S'\x00\x00\x9aB\x00\x00tB\x90\xfd\xd1A'
p31
tp32
btp33
sS'frame0031.jpg'
p34
(I2
g2
(g3
(I0
tp35
g5
tp36
Rp37
(I1
(I3
tp38
g12
I00
S'\x00\x00AC\x00\x00\x17C\xf3\xad\nB'
p39
tp40
btp41
sS'frame0033.jpg'
p42
(I22
g2
(g3
(I0
tp43
g5
tp44
Rp45
(I1
(I3
tp46
g12
I00
S'\x00\x00\xf6B\x00\x00/C\xd88\x90A'
p47
tp48
btp49
sS'frame0038.jpg'
p50
(I42
g2
(g3
(I0
tp51
g5
tp52
Rp53
(I1
(I3
tp54
g12
I00
S'\x00\x00\xc6B\x00\x00\x8aB\xf2(\xc8A'
p55
tp56
btp57
sS'frame0034.jpg'
p58
(I14
g2
(g3
(I0
tp59
g5
tp60
Rp61
(I1
(I3
tp62
g12
I00
S'\x00\x00\xd2B\x00\x00\xf8A&t\xafA'
p63
tp64
btp65
sS'frame0036.jpg'
p66
(I11
g2
(g3
(I0
tp67
g5
tp68
Rp69
(I1
(I3
tp70
g12
I00
S'\x00\x00\xdaB\x00\x00\xf8A\xdc5\x98A'
p71
tp72
btp73
sS'frame0030.jpg'
p74
(I3
g2
(g3
(I0
tp75
g5
tp76
Rp77
(I1
(I3
tp78
g12
I00
S'\x00\x00\xf6B\x00\x00)C+3\xa0A'
p79
tp80
btp81
sS'frame0032.jpg'
p82
(I24
g2
(g3
(I0
tp83
g5
tp84
Rp85
(I1
(I3
tp86
g12
I00
S'\x00\x00\xb6B\x00\x00\x9aB\xe1\xef\x06B'
p87
tp88
btp89
s.